; Function Attrs: mustprogress uwtable
define hidden noundef nonnull align 8 dereferenceable(8) ptr @_Z7marshalRSo7obj_refI4expr11ast_managerERS2_(ptr noundef nonnull returned align 8 dereferenceable(8) %0, ptr noundef readonly captures(none) %1, ptr noundef nonnull align 8 dereferenceable(976) %2) local_unnamed_addr #3 personality ptr @__gxx_personality_v0 {
  %4 = alloca %class.ast_smt_pp, align 8
  call void @llvm.lifetime.start.p0(i64 144, ptr nonnull %4) #17
  call void @_ZN10ast_smt_ppC1ER11ast_manager(ptr noundef nonnull align 8 dereferenceable(137) %4, ptr noundef nonnull align 8 dereferenceable(976) %2)
  %5 = load ptr, ptr %1, align 8, !tbaa !3
  invoke void @_ZN10ast_smt_pp12display_smt2ERSoP4expr(ptr noundef nonnull align 8 dereferenceable(137) %4, ptr noundef nonnull align 8 dereferenceable(8) %0, ptr noundef %5)
          to label %6 unwind label %7

6:                                                ; preds = %3
  call void @_ZN10ast_smt_ppD2Ev(ptr noundef nonnull align 8 dereferenceable(137) %4) #17
  call void @llvm.lifetime.end.p0(i64 144, ptr nonnull %4) #17
  ret ptr %0

7:                                                ; preds = %3
  %8 = landingpad { ptr, i32 }
          cleanup
  call void @_ZN10ast_smt_ppD2Ev(ptr noundef nonnull align 8 dereferenceable(137) %4) #17
  call void @llvm.lifetime.end.p0(i64 144, ptr nonnull %4) #17
  resume { ptr, i32 } %8
}